(dp0
Vsg_bundle_data
p1
(dp2
Vtype
p3
VCustomNonProjectEntity07
p4
sVid
p5
I81
sVsg_system_name
p6
Vtk-config-default2
p7
sVsg_status_list
p8
Vhidden
p9
sVsg_deprecation_message
p10
NssVsg_version_data
p11
(dp12
Vtype
p13
VCustomNonProjectEntity08
p14
sVid
p15
I2986
sVcode
p16
Vv1.6.0
p17
sVsg_status_list
p18
Vprod
p19
sVdescription
p20
V[No wiki release notes found]
p21
sVtags
p22
(lp23
sVsg_detailed_release_notes
p24
(dp25
Vurl
p26
Vhttps://community.shotgridsoftware.com/t/shotgrid-integration-1-6-release-notes/17759
p27
sVname
p28
Vv1.6.0
p29
sVcontent_type
p30
NsVlink_type
p31
Vweb
p32
sg13
VAttachment
p33
sg15
I30582
ssVsg_documentation
p34
NsVsg_payload
p35
(dp36
g26
Vhttps://s3-proxy.shotgunstudio.com/d18c13bf0e59a9a82f18be518a1b6b508bcbd774/4d2863bea08a0d0bf41c715991952db6a5b0df0e/tk-config-default2_v1.6.0.zip?response-content-disposition=filename%3D%22tk-config-default2_v1.6.0.zip%22&x-amz-meta-user-id=42&x-amz-meta-user-type=ApiUser&X-Amz-Algorithm=AWS4-HMAC-SHA256&X-Amz-Credential=ASIAYJG6Z4JIVDYDZCMV%2F20231105%2Fus-west-2%2Fs3%2Faws4_request&X-Amz-Date=20231105T150129Z&X-Amz-SignedHeaders=host&X-Amz-Expires=900&X-Amz-Security-Token=IQoJb3JpZ2luX2VjED8aCXVzLWVhc3QtMSJIMEYCIQCvuu9rWZkIXIyqcXOdb2eJZGYbmlnX%2BZUrBLNtjtD0%2BQIhANTA6u2KBEz1BLeM7UgvUW2zah6XWPZ%2Fvgc8llrZKUeeKpgCCHgQABoMNTY5NTUwNDMwODAxIgzN132H0aK%2FH8vWpz4q9QH0QDikjGCe%2BX4mKQYRiXCU750A9VBQcZVNJdtN0UAonqRiEuWulZQzMFL7Ml1j62iqO73e2lu%2BbHgxatCdnNGAfV1LkqhpZnTGc9n%2FrATpdDe6CmihKguIzPWeWsMmz%2Fkt2yVcNv8oW6SUerITFVeSKlAncYm%2Fs9q%2FAHU4KXf4zbw6i8aX1K6Ulw3KBHTjaUzr96d6sx%2B4YnlxQX9ZQ0UPMRe2FErxfqBLrkiAWXzoFNK%2B9d73PE92JFiqRdPL%2BlsekMXOZCWc93r5ZSI9Uu6NWZ6TchTcEwOizfN2Gf3yjlJ%2FRut2mMv%2BYD39t4HVC3OI4blsBDDfz56qBjqcAT3TEAiqjAmG1IHTqUKCyiuLVY6UxR6ia9zv2nSW4T7%2FPYUb3jYLUmhH3W6rW2%2BeorlJzvCx5fFilWi9de3v2NtXVr5EaEa01BuqKME80Umt79z3ds3QRoS4BTMHpI1V1fxFY%2B2QkEA6uhSAOYFamTLtAjABEdKE1Utruh8fnEBfq5YaKUYpYlDOFaBdnATZ4Tc5oDlpWANSdjivBg%3D%3D&X-Amz-Signature=c53cedbd979383a967fd0418a71e53d59c4f2e8d2793f7420a0a69bef21c0ef7
p37
sg28
Vtk-config-default2_v1.6.0.zip
p38
sg30
Vapplication/zip
p39
sg31
Vupload
p40
sg13
VAttachment
p41
sg15
I30576
sss.